
test_3_minimal_O0:     file format elf64-powerpcle


Disassembly of section .init:

0000000010000500 <00000024.plt_call.__gmon_start__>:
    10000500:	18 00 41 f8 	std     r2,24(r1)
    10000504:	18 81 82 e9 	ld      r12,-32488(r2)
    10000508:	a6 03 89 7d 	mtctr   r12
    1000050c:	20 04 80 4e 	bctr

0000000010000510 <_init>:
    10000510:	02 10 40 3c 	lis     r2,4098
    10000514:	00 7f 42 38 	addi    r2,r2,32512
    10000518:	a6 02 08 7c 	mflr    r0
    1000051c:	10 00 01 f8 	std     r0,16(r1)
    10000520:	a1 ff 21 f8 	stdu    r1,-96(r1)
    10000524:	00 00 00 60 	nop
    10000528:	08 80 02 e8 	ld      r0,-32760(r2)
    1000052c:	00 00 a0 2f 	cmpdi   cr7,r0,0
    10000530:	0c 00 fe 41 	beq+    cr7,1000053c <_init+0x2c>
    10000534:	cd ff ff 4b 	bl      10000500 <00000024.plt_call.__gmon_start__>
    10000538:	18 00 41 e8 	ld      r2,24(r1)
    1000053c:	60 00 21 38 	addi    r1,r1,96
    10000540:	10 00 01 e8 	ld      r0,16(r1)
    10000544:	a6 03 08 7c 	mtlr    r0
    10000548:	20 00 80 4e 	blr

Disassembly of section .text:

0000000010000560 <00000017.plt_call.printf@@GLIBC_2.17>:
    10000560:	18 00 41 f8 	std     r2,24(r1)
    10000564:	20 81 82 e9 	ld      r12,-32480(r2)
    10000568:	a6 03 89 7d 	mtctr   r12
    1000056c:	20 04 80 4e 	bctr

0000000010000570 <00000017.plt_call.__libc_start_main@@GLIBC_2.17>:
    10000570:	18 00 41 f8 	std     r2,24(r1)
    10000574:	10 81 82 e9 	ld      r12,-32496(r2)
    10000578:	a6 03 89 7d 	mtctr   r12
    1000057c:	20 04 80 4e 	bctr

0000000010000580 <_start>:
    10000580:	02 10 40 3c 	lis     r2,4098
    10000584:	00 7f 42 38 	addi    r2,r2,32512
    10000588:	78 0b 29 7c 	mr      r9,r1
    1000058c:	e4 06 21 78 	rldicr  r1,r1,0,59
    10000590:	00 00 00 38 	li      r0,0
    10000594:	81 ff 21 f8 	stdu    r1,-128(r1)
    10000598:	a6 03 08 7c 	mtlr    r0
    1000059c:	00 00 01 f8 	std     r0,0(r1)
    100005a0:	10 80 02 e9 	ld      r8,-32752(r2)
    100005a4:	cc ff ff 4b 	b       10000570 <00000017.plt_call.__libc_start_main@@GLIBC_2.17>
    100005a8:	00 00 00 60 	nop
	...
    100005b4:	40 20 0c 00 	.long 0xc2040
    100005b8:	2c 00 00 00 	.long 0x2c
    100005bc:	06 00 5f 73 	andi.   r31,r26,6
    100005c0:	74 61 72 74 	andis.  r18,r3,24948
    100005c4:	00 00 00 60 	nop
    100005c8:	00 00 00 60 	nop
    100005cc:	00 00 00 60 	nop

00000000100005d0 <deregister_tm_clones>:
    100005d0:	02 10 40 3c 	lis     r2,4098
    100005d4:	00 7f 42 38 	addi    r2,r2,32512
    100005d8:	00 00 00 60 	nop
    100005dc:	00 00 00 60 	nop
    100005e0:	3f 81 22 39 	addi    r9,r2,-32449
    100005e4:	38 81 62 38 	addi    r3,r2,-32456
    100005e8:	50 48 23 7d 	subf    r9,r3,r9
    100005ec:	0e 00 a9 2b 	cmpldi  cr7,r9,14
    100005f0:	20 00 9d 4c 	blelr   cr7
    100005f4:	00 00 00 60 	nop
    100005f8:	18 80 22 e9 	ld      r9,-32744(r2)
    100005fc:	00 00 a9 2f 	cmpdi   cr7,r9,0
    10000600:	20 00 9e 4d 	beqlr   cr7
    10000604:	a6 02 08 7c 	mflr    r0
    10000608:	78 4b 2c 7d 	mr      r12,r9
    1000060c:	a6 03 29 7d 	mtctr   r9
    10000610:	10 00 01 f8 	std     r0,16(r1)
    10000614:	e1 ff 21 f8 	stdu    r1,-32(r1)
    10000618:	18 00 41 f8 	std     r2,24(r1)
    1000061c:	21 04 80 4e 	bctrl
    10000620:	18 00 41 e8 	ld      r2,24(r1)
    10000624:	20 00 21 38 	addi    r1,r1,32
    10000628:	10 00 01 e8 	ld      r0,16(r1)
    1000062c:	a6 03 08 7c 	mtlr    r0
    10000630:	20 00 80 4e 	blr
    10000634:	00 00 00 60 	nop
    10000638:	00 00 00 60 	nop
    1000063c:	00 00 42 60 	ori     r2,r2,0

0000000010000640 <register_tm_clones>:
    10000640:	02 10 40 3c 	lis     r2,4098
    10000644:	00 7f 42 38 	addi    r2,r2,32512
    10000648:	00 00 00 60 	nop
    1000064c:	00 00 00 60 	nop
    10000650:	38 81 82 38 	addi    r4,r2,-32456
    10000654:	38 81 62 38 	addi    r3,r2,-32456
    10000658:	50 20 83 7c 	subf    r4,r3,r4
    1000065c:	74 1e 84 7c 	sradi   r4,r4,3
    10000660:	74 0e 84 7c 	sradi   r4,r4,1
    10000664:	95 01 84 7c 	addze.  r4,r4
    10000668:	20 00 82 4d 	beqlr   
    1000066c:	00 00 00 60 	nop
    10000670:	20 80 42 e9 	ld      r10,-32736(r2)
    10000674:	00 00 aa 2f 	cmpdi   cr7,r10,0
    10000678:	20 00 9e 4d 	beqlr   cr7
    1000067c:	a6 02 08 7c 	mflr    r0
    10000680:	78 53 4c 7d 	mr      r12,r10
    10000684:	a6 03 49 7d 	mtctr   r10
    10000688:	10 00 01 f8 	std     r0,16(r1)
    1000068c:	e1 ff 21 f8 	stdu    r1,-32(r1)
    10000690:	18 00 41 f8 	std     r2,24(r1)
    10000694:	21 04 80 4e 	bctrl
    10000698:	18 00 41 e8 	ld      r2,24(r1)
    1000069c:	20 00 21 38 	addi    r1,r1,32
    100006a0:	10 00 01 e8 	ld      r0,16(r1)
    100006a4:	a6 03 08 7c 	mtlr    r0
    100006a8:	20 00 80 4e 	blr
    100006ac:	00 00 42 60 	ori     r2,r2,0

00000000100006b0 <__do_global_dtors_aux>:
    100006b0:	02 10 40 3c 	lis     r2,4098
    100006b4:	00 7f 42 38 	addi    r2,r2,32512
    100006b8:	00 00 00 60 	nop
    100006bc:	38 81 22 89 	lbz     r9,-32456(r2)
    100006c0:	00 00 89 2f 	cmpwi   cr7,r9,0
    100006c4:	20 00 9e 4c 	bnelr   cr7
    100006c8:	a6 02 08 7c 	mflr    r0
    100006cc:	10 00 01 f8 	std     r0,16(r1)
    100006d0:	e1 ff 21 f8 	stdu    r1,-32(r1)
    100006d4:	05 ff ff 4b 	bl      100005d8 <deregister_tm_clones+0x8>
    100006d8:	20 00 21 38 	addi    r1,r1,32
    100006dc:	01 00 20 39 	li      r9,1
    100006e0:	00 00 00 60 	nop
    100006e4:	10 00 01 e8 	ld      r0,16(r1)
    100006e8:	38 81 22 99 	stb     r9,-32456(r2)
    100006ec:	a6 03 08 7c 	mtlr    r0
    100006f0:	20 00 80 4e 	blr
    100006f4:	00 00 00 60 	nop
    100006f8:	00 00 00 60 	nop
    100006fc:	00 00 42 60 	ori     r2,r2,0

0000000010000700 <frame_dummy>:
    10000700:	02 10 40 3c 	lis     r2,4098
    10000704:	00 7f 42 38 	addi    r2,r2,32512
    10000708:	ff ff 22 3d 	addis   r9,r2,-1
    1000070c:	c8 7d 29 39 	addi    r9,r9,32200
    10000710:	78 4b 23 7d 	mr      r3,r9
    10000714:	00 00 23 e9 	ld      r9,0(r3)
    10000718:	00 00 a9 2f 	cmpdi   cr7,r9,0
    1000071c:	14 00 9e 40 	bne     cr7,10000730 <frame_dummy+0x30>
    10000720:	28 ff ff 4b 	b       10000648 <register_tm_clones+0x8>
    10000724:	00 00 00 60 	nop
    10000728:	00 00 00 60 	nop
    1000072c:	00 00 42 60 	ori     r2,r2,0
    10000730:	00 00 00 60 	nop
    10000734:	28 80 22 e9 	ld      r9,-32728(r2)
    10000738:	00 00 a9 2f 	cmpdi   cr7,r9,0
    1000073c:	e4 ff 9e 41 	beq     cr7,10000720 <frame_dummy+0x20>
    10000740:	a6 02 08 7c 	mflr    r0
    10000744:	78 4b 2c 7d 	mr      r12,r9
    10000748:	a6 03 29 7d 	mtctr   r9
    1000074c:	10 00 01 f8 	std     r0,16(r1)
    10000750:	e1 ff 21 f8 	stdu    r1,-32(r1)
    10000754:	18 00 41 f8 	std     r2,24(r1)
    10000758:	21 04 80 4e 	bctrl
    1000075c:	18 00 41 e8 	ld      r2,24(r1)
    10000760:	20 00 21 38 	addi    r1,r1,32
    10000764:	10 00 01 e8 	ld      r0,16(r1)
    10000768:	a6 03 08 7c 	mtlr    r0
    1000076c:	dc fe ff 4b 	b       10000648 <register_tm_clones+0x8>
    10000770:	00 00 00 60 	nop
    10000774:	00 00 00 60 	nop
    10000778:	00 00 00 60 	nop
    1000077c:	00 00 00 60 	nop

0000000010000780 <compute>:
    10000780:	02 10 40 3c 	lis     r2,4098
    10000784:	00 7f 42 38 	addi    r2,r2,32512
    10000788:	a6 02 08 7c 	mflr    r0
    1000078c:	f0 ff c1 fb 	std     r30,-16(r1)
    10000790:	10 00 01 f8 	std     r0,16(r1)
    10000794:	71 ff 21 f8 	stdu    r1,-144(r1)
    10000798:	fe ff c2 3f 	addis   r30,r2,-2
    1000079c:	20 8b de 3b 	addi    r30,r30,-29920
    100007a0:	00 00 1e c8 	lfd     f0,0(r30)
    100007a4:	60 00 01 d8 	stfd    f0,96(r1)
    100007a8:	08 00 1e c8 	lfd     f0,8(r30)
    100007ac:	68 00 01 d8 	stfd    f0,104(r1)
    100007b0:	00 00 00 38 	li      r0,0
    100007b4:	70 00 01 90 	stw     r0,112(r1)
    100007b8:	72 00 01 e8 	lwa     r0,112(r1)
    100007bc:	01 00 00 2c 	cmpwi   r0,1
    100007c0:	4c 00 80 40 	bge     1000080c <compute+0x8c>
    100007c4:	68 00 01 c8 	lfd     f0,104(r1)
    100007c8:	60 00 21 c8 	lfd     f1,96(r1)
    100007cc:	10 00 5e c8 	lfd     f2,16(r30)
    100007d0:	c0 11 21 f0 	xsdivdp vs1,vs1,vs2
    100007d4:	18 00 5e c8 	lfd     f2,24(r30)
    100007d8:	00 11 21 f0 	xsadddp vs1,vs1,vs2
    100007dc:	00 09 20 f0 	xsadddp vs1,vs0,vs1
    100007e0:	68 00 21 d8 	stfd    f1,104(r1)
    100007e4:	66 00 24 7c 	mfvsrd  r4,vs1
    100007e8:	20 00 7e 38 	addi    r3,r30,32
    100007ec:	75 fd ff 4b 	bl      10000560 <00000017.plt_call.printf@@GLIBC_2.17>
    100007f0:	18 00 41 e8 	ld      r2,24(r1)
    100007f4:	72 00 61 e8 	lwa     r3,112(r1)
    100007f8:	01 00 03 38 	addi    r0,r3,1
    100007fc:	70 00 01 90 	stw     r0,112(r1)
    10000800:	72 00 01 e8 	lwa     r0,112(r1)
    10000804:	01 00 00 2c 	cmpwi   r0,1
    10000808:	bc ff 80 41 	blt     100007c4 <compute+0x44>
    1000080c:	a0 00 01 e8 	ld      r0,160(r1)
    10000810:	a6 03 08 7c 	mtlr    r0
    10000814:	90 00 21 38 	addi    r1,r1,144
    10000818:	f0 ff c1 eb 	ld      r30,-16(r1)
    1000081c:	20 00 80 4e 	blr
    10000820:	00 00 00 00 	.long 0x0
    10000824:	00 00 22 41 	bdnzt   eq,10000824 <compute+0xa4>
    10000828:	80 02 00 01 	.long 0x1000280
    1000082c:	a0 00 00 00 	.long 0xa0
    10000830:	07 00 63 6f 	xoris   r3,r27,7
    10000834:	6d 70 75 74 	andis.  r21,r3,28781
    10000838:	65 00 00 00 	.long 0x65
    1000083c:	00 00 00 00 	.long 0x0

0000000010000840 <main>:
    10000840:	02 10 40 3c 	lis     r2,4098
    10000844:	00 7f 42 38 	addi    r2,r2,32512
    10000848:	a6 02 08 7c 	mflr    r0
    1000084c:	a1 ff 21 f8 	stdu    r1,-96(r1)
    10000850:	70 00 01 f8 	std     r0,112(r1)
    10000854:	35 ff ff 4b 	bl      10000788 <compute+0x8>
    10000858:	00 00 60 38 	li      r3,0
    1000085c:	70 00 01 e8 	ld      r0,112(r1)
    10000860:	a6 03 08 7c 	mtlr    r0
    10000864:	60 00 21 38 	addi    r1,r1,96
    10000868:	20 00 80 4e 	blr
    1000086c:	00 00 00 00 	.long 0x0
    10000870:	00 00 20 41 	bdnzt   lt,10000870 <main+0x30>
    10000874:	80 00 00 01 	.long 0x1000080
    10000878:	2c 00 00 00 	.long 0x2c
    1000087c:	04 00 6d 61 	ori     r13,r11,4
    10000880:	69 6e 00 00 	.long 0x6e69
    10000884:	00 00 00 60 	nop
    10000888:	00 00 00 60 	nop
    1000088c:	00 00 00 60 	nop

0000000010000890 <__libc_csu_init>:
    10000890:	02 10 40 3c 	lis     r2,4098
    10000894:	00 7f 42 38 	addi    r2,r2,32512
    10000898:	a6 02 08 7c 	mflr    r0
    1000089c:	d0 ff 41 fb 	std     r26,-48(r1)
    100008a0:	d8 ff 61 fb 	std     r27,-40(r1)
    100008a4:	e0 ff 81 fb 	std     r28,-32(r1)
    100008a8:	e8 ff a1 fb 	std     r29,-24(r1)
    100008ac:	f0 ff c1 fb 	std     r30,-16(r1)
    100008b0:	f8 ff e1 fb 	std     r31,-8(r1)
    100008b4:	10 00 01 f8 	std     r0,16(r1)
    100008b8:	b1 ff 21 f8 	stdu    r1,-80(r1)
    100008bc:	00 00 e0 3b 	li      r31,0
    100008c0:	ff ff c2 3f 	addis   r30,r2,-1
    100008c4:	ff ff a2 3f 	addis   r29,r2,-1
    100008c8:	b8 7d de 3b 	addi    r30,r30,32184
    100008cc:	c0 7d bd 3b 	addi    r29,r29,32192
    100008d0:	50 e8 be 7f 	subf    r29,r30,r29
    100008d4:	78 1b 7a 7c 	mr      r26,r3
    100008d8:	78 23 9b 7c 	mr      r27,r4
    100008dc:	78 2b bc 7c 	mr      r28,r5
    100008e0:	39 fc ff 4b 	bl      10000518 <_init+0x8>
    100008e4:	00 00 00 60 	nop
    100008e8:	75 1e bd 7f 	sradi.  r29,r29,3
    100008ec:	f8 ff de 3b 	addi    r30,r30,-8
    100008f0:	40 00 82 41 	beq     10000930 <__libc_csu_init+0xa0>
    100008f4:	00 00 00 60 	nop
    100008f8:	00 00 00 60 	nop
    100008fc:	00 00 42 60 	ori     r2,r2,0
    10000900:	09 00 3e e9 	ldu     r9,8(r30)
    10000904:	78 d3 43 7f 	mr      r3,r26
    10000908:	18 00 41 f8 	std     r2,24(r1)
    1000090c:	78 db 64 7f 	mr      r4,r27
    10000910:	78 e3 85 7f 	mr      r5,r28
    10000914:	01 00 ff 3b 	addi    r31,r31,1
    10000918:	a6 03 29 7d 	mtctr   r9
    1000091c:	78 4b 2c 7d 	mr      r12,r9
    10000920:	21 04 80 4e 	bctrl
    10000924:	18 00 41 e8 	ld      r2,24(r1)
    10000928:	40 e8 bf 7f 	cmpld   cr7,r31,r29
    1000092c:	d4 ff 9e 40 	bne     cr7,10000900 <__libc_csu_init+0x70>
    10000930:	50 00 21 38 	addi    r1,r1,80
    10000934:	10 00 01 e8 	ld      r0,16(r1)
    10000938:	d0 ff 41 eb 	ld      r26,-48(r1)
    1000093c:	d8 ff 61 eb 	ld      r27,-40(r1)
    10000940:	e0 ff 81 eb 	ld      r28,-32(r1)
    10000944:	e8 ff a1 eb 	ld      r29,-24(r1)
    10000948:	f0 ff c1 eb 	ld      r30,-16(r1)
    1000094c:	f8 ff e1 eb 	ld      r31,-8(r1)
    10000950:	a6 03 08 7c 	mtlr    r0
    10000954:	20 00 80 4e 	blr
    10000958:	00 00 00 00 	.long 0x0
    1000095c:	00 00 00 01 	.long 0x1000000
    10000960:	80 06 00 00 	.long 0x680
    10000964:	00 00 00 60 	nop
    10000968:	00 00 00 60 	nop
    1000096c:	00 00 42 60 	ori     r2,r2,0

0000000010000970 <__libc_csu_fini>:
    10000970:	20 00 80 4e 	blr
	...
    10000980:	70 f6 01 00 	.long 0x1f670
    10000984:	00 00 00 00 	.long 0x0

0000000010000988 <__glink_PLTresolve>:
    10000988:	a6 02 08 7c 	mflr    r0
    1000098c:	05 00 9f 42 	bcl     20,4*cr7+so,10000990 <__glink_PLTresolve+0x8>
    10000990:	a6 02 68 7d 	mflr    r11
    10000994:	f0 ff 4b e8 	ld      r2,-16(r11)
    10000998:	a6 03 08 7c 	mtlr    r0
    1000099c:	50 60 8b 7d 	subf    r12,r11,r12
    100009a0:	14 5a 62 7d 	add     r11,r2,r11
    100009a4:	d0 ff 0c 38 	addi    r0,r12,-48
    100009a8:	00 00 8b e9 	ld      r12,0(r11)
    100009ac:	82 f0 00 78 	rldicl  r0,r0,62,2
    100009b0:	a6 03 89 7d 	mtctr   r12
    100009b4:	08 00 6b e9 	ld      r11,8(r11)
    100009b8:	20 04 80 4e 	bctr
    100009bc:	00 00 00 60 	nop

00000000100009c0 <__libc_start_main@plt>:
    100009c0:	c8 ff ff 4b 	b       10000988 <__glink_PLTresolve>

00000000100009c4 <__gmon_start__@plt>:
    100009c4:	c4 ff ff 4b 	b       10000988 <__glink_PLTresolve>

00000000100009c8 <printf@plt>:
    100009c8:	c0 ff ff 4b 	b       10000988 <__glink_PLTresolve>

Disassembly of section .fini:

00000000100009cc <_fini>:
    100009cc:	02 10 40 3c 	lis     r2,4098
    100009d0:	00 7f 42 38 	addi    r2,r2,32512
    100009d4:	a6 02 08 7c 	mflr    r0
    100009d8:	10 00 01 f8 	std     r0,16(r1)
    100009dc:	a1 ff 21 f8 	stdu    r1,-96(r1)
    100009e0:	60 00 21 38 	addi    r1,r1,96
    100009e4:	10 00 01 e8 	ld      r0,16(r1)
    100009e8:	a6 03 08 7c 	mtlr    r0
    100009ec:	20 00 80 4e 	blr
